Certificate:
    Data:
        Version: 3 (0x2)
        Serial Number:
            fa:24:ef:1a:5a:f2:b2:a4
        Signature Algorithm: sha1WithRSAEncryption
        Issuer: C=US, ST=Washington, L=Seattle, O=wolfSSL Inc., OU=Engineering, CN=wolfssh/emailAddress=info@wolfssl.com
        Validity
            Not Before: Aug 15 19:46:24 2014 GMT
            Not After : May 11 19:46:24 2017 GMT
        Subject: C=US, ST=Washington, L=Seattle, O=wolfSSL Inc., OU=Engineering, CN=wolfssh/emailAddress=info@wolfssl.com
        Subject Public Key Info:
            Public Key Algorithm: rsaEncryption
            RSA Public Key: (2048 bit)
                Modulus (2048 bit):
                    00:c5:7e:5d:0c:c5:47:95:67:ad:89:ff:db:fa:77:
                    e8:1f:76:d3:ac:6f:10:8a:93:bf:ee:1b:93:9f:5b:
                    71:79:4c:d8:d5:6d:8e:d0:d2:b9:6b:e8:75:c8:73:
                    f5:5d:1c:61:60:27:da:79:40:18:a3:b4:b8:f3:c3:
                    79:4e:12:6f:a2:20:46:6c:29:50:5d:f8:b6:82:89:
                    34:22:2a:14:00:77:38:ad:fa:e3:61:8d:71:c4:ff:
                    76:bc:34:3d:85:b5:ca:96:f8:46:d9:90:0f:e4:05:
                    31:4b:cf:2e:9b:5b:58:f8:2e:fc:88:68:d4:36:e0:
                    01:4c:0b:a4:ee:58:a0:ce:20:ef:78:b3:e6:50:56:
                    51:4d:de:1e:3d:2f:5c:49:6b:3d:78:94:6b:2e:ab:
                    ae:0c:c0:b2:e8:29:a8:bc:ec:d2:05:a5:ac:3d:87:
                    50:55:3e:48:55:b4:b7:91:e5:2e:ce:89:51:02:14:
                    60:53:96:d7:7b:3e:61:2b:d3:54:f4:38:8d:55:78:
                    48:f0:ad:67:39:fd:41:34:a3:fa:90:02:a0:d9:d4:
                    01:fe:7a:8b:52:08:c9:0f:8b:5e:89:42:f1:bd:b7:
                    40:35:b0:29:50:3c:66:46:59:31:e3:01:03:9d:16:
                    e8:87:8a:13:0b:ab:6e:bf:d9:b8:f0:fd:3d:82:4c:
                    cc:2f
                Exponent: 65537 (0x10001)
        X509v3 extensions:
            X509v3 Subject Key Identifier: 
                3C:38:D7:FD:0C:54:14:F4:3A:DB:08:04:44:DB:4F:41:5D:E9:E9:DE
            X509v3 Authority Key Identifier: 
                keyid:3C:38:D7:FD:0C:54:14:F4:3A:DB:08:04:44:DB:4F:41:5D:E9:E9:DE
                DirName:/C=US/ST=Washington/L=Seattle/O=wolfSSL Inc./OU=Engineering/CN=wolfssh/emailAddress=info@wolfssl.com
                serial:FA:24:EF:1A:5A:F2:B2:A4

            X509v3 Basic Constraints: 
                CA:TRUE
    Signature Algorithm: sha1WithRSAEncryption
        18:c2:d1:ee:39:b4:6b:24:06:63:13:37:93:18:4f:e1:5f:12:
        5d:bf:03:88:ef:5b:bb:c8:b6:09:b6:e1:61:a2:df:4c:88:af:
        e0:cf:fd:b9:48:52:6d:1c:91:45:e1:4b:51:c4:c1:c5:11:57:
        96:4f:74:d0:4d:58:70:4d:82:43:62:bd:e0:42:e1:76:a5:16:
        55:ca:01:c4:6e:90:ff:09:1c:9e:c9:f3:98:ab:5c:c0:5f:8a:
        c3:80:f2:28:11:bd:99:e9:29:a9:ce:3c:aa:6b:fc:76:cc:93:
        8b:60:1f:bb:b3:e9:a2:a2:67:c9:3d:cb:e8:20:a4:bd:00:78:
        23:49:65:4a:96:50:09:db:f1:46:46:c1:08:9d:74:63:10:95:
        b4:ec:da:85:a2:96:50:7b:af:e5:54:aa:96:4e:77:3a:88:8c:
        f6:0e:5e:24:9f:22:ee:bc:a3:86:5d:11:48:63:65:eb:55:30:
        4b:75:22:5d:e5:14:89:cb:c9:52:21:5f:8f:47:3e:31:2c:58:
        cd:5a:09:19:4d:d6:a4:0d:85:8d:86:ef:fe:fa:77:87:8f:c2:
        07:1f:20:ad:86:d9:94:91:e8:63:6a:2f:9d:bb:c1:f1:4e:85:
        02:8e:1d:9a:21:c4:94:28:0a:3d:9a:cb:19:87:4d:e0:a2:4c:
        0f:11:8a:6c
-----BEGIN CERTIFICATE-----
MIIEqjCCA5KgAwIBAgIJAPok7xpa8rKkMA0GCSqGSIb3DQEBBQUAMIGUMQswCQYD
VQQGEwJVUzETMBEGA1UECBMKV2FzaGluZ3RvbjEQMA4GA1UEBxMHU2VhdHRsZTEV
MBMGA1UEChMMd29sZlNTTCBJbmMuMRQwEgYDVQQLEwtFbmdpbmVlcmluZzEQMA4G
A1UEAxMHd29sZnNzaDEfMB0GCSqGSIb3DQEJARYQaW5mb0B3b2xmc3NsLmNvbTAe
Fw0xNDA4MTUxOTQ2MjRaFw0xNzA1MTExOTQ2MjRaMIGUMQswCQYDVQQGEwJVUzET
MBEGA1UECBMKV2FzaGluZ3RvbjEQMA4GA1UEBxMHU2VhdHRsZTEVMBMGA1UEChMM
d29sZlNTTCBJbmMuMRQwEgYDVQQLEwtFbmdpbmVlcmluZzEQMA4GA1UEAxMHd29s
ZnNzaDEfMB0GCSqGSIb3DQEJARYQaW5mb0B3b2xmc3NsLmNvbTCCASIwDQYJKoZI
hvcNAQEBBQADggEPADCCAQoCggEBAMV+XQzFR5VnrYn/2/p36B9206xvEIqTv+4b
k59bcXlM2NVtjtDSuWvodchz9V0cYWAn2nlAGKO0uPPDeU4Sb6IgRmwpUF34toKJ
NCIqFAB3OK3642GNccT/drw0PYW1ypb4RtmQD+QFMUvPLptbWPgu/Iho1DbgAUwL
pO5YoM4g73iz5lBWUU3eHj0vXElrPXiUay6rrgzAsugpqLzs0gWlrD2HUFU+SFW0
t5HlLs6JUQIUYFOW13s+YSvTVPQ4jVV4SPCtZzn9QTSj+pACoNnUAf56i1IIyQ+L
XolC8b23QDWwKVA8ZkZZMeMBA50W6IeKEwurbr/ZuPD9PYJMzC8CAwEAAaOB/DCB
+TAdBgNVHQ4EFgQUPDjX/QxUFPQ62wgERNtPQV3p6d4wgckGA1UdIwSBwTCBvoAU
PDjX/QxUFPQ62wgERNtPQV3p6d6hgZqkgZcwgZQxCzAJBgNVBAYTAlVTMRMwEQYD
VQQIEwpXYXNoaW5ndG9uMRAwDgYDVQQHEwdTZWF0dGxlMRUwEwYDVQQKEwx3b2xm
U1NMIEluYy4xFDASBgNVBAsTC0VuZ2luZWVyaW5nMRAwDgYDVQQDEwd3b2xmc3No
MR8wHQYJKoZIhvcNAQkBFhBpbmZvQHdvbGZzc2wuY29tggkA+iTvGlrysqQwDAYD
VR0TBAUwAwEB/zANBgkqhkiG9w0BAQUFAAOCAQEAGMLR7jm0ayQGYxM3kxhP4V8S
Xb8DiO9bu8i2CbbhYaLfTIiv4M/9uUhSbRyRReFLUcTBxRFXlk900E1YcE2CQ2K9
4ELhdqUWVcoBxG6Q/wkcnsnzmKtcwF+Kw4DyKBG9mekpqc48qmv8dsyTi2Afu7Pp
oqJnyT3L6CCkvQB4I0llSpZQCdvxRkbBCJ10YxCVtOzahaKWUHuv5VSqlk53OoiM
9g5eJJ8i7ryjhl0RSGNl61UwS3UiXeUUicvJUiFfj0c+MSxYzVoJGU3WpA2FjYbv
/vp3h4/CBx8grYbZlJHoY2ovnbvB8U6FAo4dmiHElCgKPZrLGYdN4KJMDxGKbA==
-----END CERTIFICATE-----
