Certificate:
    Data:
        Version: 3 (0x2)
        Serial Number: 6 (0x6)
        Signature Algorithm: ecdsa-with-SHA256
        Issuer: C = US, ST = Washington, L = Seattle, O = wolfSSL, OU = Development, CN = www.wolfssl.com, emailAddress = ca@example.com
        Validity
            Not Before: Oct  1 05:54:44 2022 GMT
            Not After : Sep 28 05:54:44 2032 GMT
        Subject: C = US, ST = Washington, L = Seattle, O = wolfSSL, OU = Development, CN = www.wolfssl.com, emailAddress = ca@example.com
        Subject Public Key Info:
            Public Key Algorithm: id-ecPublicKey
                Public-Key: (256 bit)
                pub:
                    04:02:d3:d9:6e:d6:01:8e:45:c8:b9:90:31:e5:c0:
                    4c:e3:9e:ad:29:38:98:ba:10:d6:e9:09:2a:80:a9:
                    2e:17:2a:b9:8a:bf:33:83:46:e3:95:0b:e4:77:40:
                    b5:3b:43:45:33:0f:61:53:7c:37:44:c1:cb:fc:80:
                    ca:e8:43:ea:a7
                ASN1 OID: prime256v1
                NIST CURVE: P-256
        X509v3 extensions:
            X509v3 Subject Key Identifier: 
                56:8E:9A:C3:F0:42:DE:18:B9:45:55:6E:F9:93:CF:EA:C3:F3:A5:21
            X509v3 Authority Key Identifier: 
                keyid:56:8E:9A:C3:F0:42:DE:18:B9:45:55:6E:F9:93:CF:EA:C3:F3:A5:21
                DirName:/C=US/ST=Washington/L=Seattle/O=wolfSSL/OU=Development/CN=www.wolfssl.com/emailAddress=ca@example.com
                serial:06

            X509v3 Basic Constraints: critical
                CA:TRUE
            X509v3 Key Usage: critical
                Digital Signature, Certificate Sign, CRL Sign
    Signature Algorithm: ecdsa-with-SHA256
         30:45:02:20:18:bc:74:fd:d9:26:f2:f5:c2:f3:f5:cd:99:38:
         9d:85:7d:8b:67:c8:f5:51:4a:5a:88:b6:3f:61:38:6b:9f:11:
         02:21:00:f1:95:08:34:2b:47:32:93:8c:10:4b:4b:fd:6e:22:
         f2:48:3b:5d:8a:74:46:24:7d:30:eb:65:15:06:e4:38:e0
-----BEGIN CERTIFICATE-----
MIIDJjCCAsygAwIBAgIBBjAKBggqhkjOPQQDAjCBlTELMAkGA1UEBhMCVVMxEzAR
BgNVBAgMCldhc2hpbmd0b24xEDAOBgNVBAcMB1NlYXR0bGUxEDAOBgNVBAoMB3dv
bGZTU0wxFDASBgNVBAsMC0RldmVsb3BtZW50MRgwFgYDVQQDDA93d3cud29sZnNz
bC5jb20xHTAbBgkqhkiG9w0BCQEWDmNhQGV4YW1wbGUuY29tMB4XDTIyMTAwMTA1
NTQ0NFoXDTMyMDkyODA1NTQ0NFowgZUxCzAJBgNVBAYTAlVTMRMwEQYDVQQIDApX
YXNoaW5ndG9uMRAwDgYDVQQHDAdTZWF0dGxlMRAwDgYDVQQKDAd3b2xmU1NMMRQw
EgYDVQQLDAtEZXZlbG9wbWVudDEYMBYGA1UEAwwPd3d3LndvbGZzc2wuY29tMR0w
GwYJKoZIhvcNAQkBFg5jYUBleGFtcGxlLmNvbTBZMBMGByqGSM49AgEGCCqGSM49
AwEHA0IABALT2W7WAY5FyLmQMeXATOOerSk4mLoQ1ukJKoCpLhcquYq/M4NG45UL
5HdAtTtDRTMPYVN8N0TBy/yAyuhD6qejggEJMIIBBTAdBgNVHQ4EFgQUVo6aw/BC
3hi5RVVu+ZPP6sPzpSEwgcIGA1UdIwSBujCBt4AUVo6aw/BC3hi5RVVu+ZPP6sPz
pSGhgZukgZgwgZUxCzAJBgNVBAYTAlVTMRMwEQYDVQQIDApXYXNoaW5ndG9uMRAw
DgYDVQQHDAdTZWF0dGxlMRAwDgYDVQQKDAd3b2xmU1NMMRQwEgYDVQQLDAtEZXZl
bG9wbWVudDEYMBYGA1UEAwwPd3d3LndvbGZzc2wuY29tMR0wGwYJKoZIhvcNAQkB
Fg5jYUBleGFtcGxlLmNvbYIBBjAPBgNVHRMBAf8EBTADAQH/MA4GA1UdDwEB/wQE
AwIBhjAKBggqhkjOPQQDAgNIADBFAiAYvHT92Sby9cLz9c2ZOJ2FfYtnyPVRSlqI
tj9hOGufEQIhAPGVCDQrRzKTjBBLS/1uIvJIO12KdEYkfTDrZRUG5Djg
-----END CERTIFICATE-----
