Certificate:
    Data:
        Version: 3 (0x2)
        Serial Number: 7 (0x7)
        Signature Algorithm: ecdsa-with-SHA256
        Issuer: C = US, ST = Washington, L = Seattle, O = wolfSSL, OU = Development, CN = www.wolfssl.com, emailAddress = ca@example.com
        Validity
            Not Before: Oct  1 05:54:44 2022 GMT
            Not After : Sep 28 05:54:44 2032 GMT
        Subject: C = US, ST = WA, L = Seattle, O = wolfSSL Inc, OU = Development, CN = Fred, emailAddress = fred@example.com
        Subject Public Key Info:
            Public Key Algorithm: id-ecPublicKey
                Public-Key: (256 bit)
                pub:
                    04:12:dc:16:d1:17:81:a6:02:f0:0f:11:90:bb:32:
                    85:66:0e:76:00:62:ac:aa:e3:b9:26:1c:2a:e2:28:
                    f8:dd:d8:79:3f:c0:02:5e:d1:d1:c5:fe:3c:63:f5:
                    1f:ae:13:4b:69:ca:e8:ed:f4:36:ba:62:e0:a1:c8:
                    18:10:4b:55:e1
                ASN1 OID: prime256v1
                NIST CURVE: P-256
        X509v3 extensions:
            X509v3 Subject Key Identifier: 
                9C:AF:03:66:F5:F0:04:FC:22:8F:8E:20:26:40:47:01:CE:D6:7A:8D
            X509v3 Authority Key Identifier: 
                keyid:56:8E:9A:C3:F0:42:DE:18:B9:45:55:6E:F9:93:CF:EA:C3:F3:A5:21
                DirName:/C=US/ST=Washington/L=Seattle/O=wolfSSL/OU=Development/CN=www.wolfssl.com/emailAddress=ca@example.com
                serial:06

            X509v3 Subject Alternative Name: 
                othername:<unsupported>
    Signature Algorithm: ecdsa-with-SHA256
         30:45:02:21:00:de:95:bb:3a:54:c3:81:6e:f2:89:da:2f:99:
         37:e7:40:13:be:40:5c:93:84:0f:36:2e:80:d6:8a:f5:e3:6a:
         0c:02:20:55:6b:3a:c8:ed:ce:d1:29:15:b5:32:21:3c:a5:0e:
         bc:84:08:db:a3:ef:c1:c5:c3:79:1f:07:c9:c0:bb:b0:f5
-----BEGIN CERTIFICATE-----
MIIDITCCAsegAwIBAgIBBzAKBggqhkjOPQQDAjCBlTELMAkGA1UEBhMCVVMxEzAR
BgNVBAgMCldhc2hpbmd0b24xEDAOBgNVBAcMB1NlYXR0bGUxEDAOBgNVBAoMB3dv
bGZTU0wxFDASBgNVBAsMC0RldmVsb3BtZW50MRgwFgYDVQQDDA93d3cud29sZnNz
bC5jb20xHTAbBgkqhkiG9w0BCQEWDmNhQGV4YW1wbGUuY29tMB4XDTIyMTAwMTA1
NTQ0NFoXDTMyMDkyODA1NTQ0NFowgYgxCzAJBgNVBAYTAlVTMQswCQYDVQQIDAJX
QTEQMA4GA1UEBwwHU2VhdHRsZTEUMBIGA1UECgwLd29sZlNTTCBJbmMxFDASBgNV
BAsMC0RldmVsb3BtZW50MQ0wCwYDVQQDDARGcmVkMR8wHQYJKoZIhvcNAQkBFhBm
cmVkQGV4YW1wbGUuY29tMFkwEwYHKoZIzj0CAQYIKoZIzj0DAQcDQgAEEtwW0ReB
pgLwDxGQuzKFZg52AGKsquO5Jhwq4ij43dh5P8ACXtHRxf48Y/UfrhNLacro7fQ2
umLgocgYEEtV4aOCAREwggENMB0GA1UdDgQWBBScrwNm9fAE/CKPjiAmQEcBztZ6
jTCBwgYDVR0jBIG6MIG3gBRWjprD8ELeGLlFVW75k8/qw/OlIaGBm6SBmDCBlTEL
MAkGA1UEBhMCVVMxEzARBgNVBAgMCldhc2hpbmd0b24xEDAOBgNVBAcMB1NlYXR0
bGUxEDAOBgNVBAoMB3dvbGZTU0wxFDASBgNVBAsMC0RldmVsb3BtZW50MRgwFgYD
VQQDDA93d3cud29sZnNzbC5jb20xHTAbBgkqhkiG9w0BCQEWDmNhQGV4YW1wbGUu
Y29tggEGMCcGA1UdEQQgMB6gHAYKKwYBBAGCNxQCA6AODAxmcmVkQGV4YW1wbGUw
CgYIKoZIzj0EAwIDSAAwRQIhAN6VuzpUw4Fu8onaL5k350ATvkBck4QPNi6A1or1
42oMAiBVazrI7c7RKRW1MiE8pQ68hAjbo+/BxcN5HwfJwLuw9Q==
-----END CERTIFICATE-----
