Certificate:
    Data:
        Version: 3 (0x2)
        Serial Number: 8 (0x8)
        Signature Algorithm: ecdsa-with-SHA256
        Issuer: C = US, ST = Washington, L = Seattle, O = wolfSSL, OU = Development, CN = www.wolfssl.com, emailAddress = ca@example.com
        Validity
            Not Before: Oct  1 05:54:44 2022 GMT
            Not After : Sep 28 05:54:44 2032 GMT
        Subject: C = US, ST = Washington, L = Seattle, O = Eliptic, OU = ECC, CN = www.wolfssl.com, emailAddress = server@example.com
        Subject Public Key Info:
            Public Key Algorithm: id-ecPublicKey
                Public-Key: (256 bit)
                pub:
                    04:bb:33:ac:4c:27:50:4a:c6:4a:a5:04:c3:3c:de:
                    9f:36:db:72:2d:ce:94:ea:2b:fa:cb:20:09:39:2c:
                    16:e8:61:02:e9:af:4d:d3:02:93:9a:31:5b:97:92:
                    21:7f:f0:cf:18:da:91:11:02:34:86:e8:20:58:33:
                    0b:80:34:89:d8
                ASN1 OID: prime256v1
                NIST CURVE: P-256
        X509v3 extensions:
            X509v3 Subject Key Identifier: 
                5D:5D:26:EF:AC:7E:36:F9:9B:76:15:2B:4A:25:02:23:EF:B2:89:30
            X509v3 Authority Key Identifier: 
                keyid:56:8E:9A:C3:F0:42:DE:18:B9:45:55:6E:F9:93:CF:EA:C3:F3:A5:21
                DirName:/C=US/ST=Washington/L=Seattle/O=wolfSSL/OU=Development/CN=www.wolfssl.com/emailAddress=ca@example.com
                serial:06

            X509v3 Subject Alternative Name: 
                DNS:example, IP Address:127.0.0.1
    Signature Algorithm: ecdsa-with-SHA256
         30:45:02:20:42:d8:a0:95:e7:aa:4e:63:fd:50:6e:6b:f9:98:
         90:be:3d:44:53:68:1b:66:dd:22:a3:12:77:70:94:56:db:82:
         02:21:00:ce:18:b2:10:b2:2d:2a:b9:79:d4:76:64:df:28:91:
         23:8d:93:22:e9:4b:ea:7f:49:4e:eb:65:ce:c8:86:ba:fb
-----BEGIN CERTIFICATE-----
MIIDGjCCAsCgAwIBAgIBCDAKBggqhkjOPQQDAjCBlTELMAkGA1UEBhMCVVMxEzAR
BgNVBAgMCldhc2hpbmd0b24xEDAOBgNVBAcMB1NlYXR0bGUxEDAOBgNVBAoMB3dv
bGZTU0wxFDASBgNVBAsMC0RldmVsb3BtZW50MRgwFgYDVQQDDA93d3cud29sZnNz
bC5jb20xHTAbBgkqhkiG9w0BCQEWDmNhQGV4YW1wbGUuY29tMB4XDTIyMTAwMTA1
NTQ0NFoXDTMyMDkyODA1NTQ0NFowgZExCzAJBgNVBAYTAlVTMRMwEQYDVQQIDApX
YXNoaW5ndG9uMRAwDgYDVQQHDAdTZWF0dGxlMRAwDgYDVQQKDAdFbGlwdGljMQww
CgYDVQQLDANFQ0MxGDAWBgNVBAMMD3d3dy53b2xmc3NsLmNvbTEhMB8GCSqGSIb3
DQEJARYSc2VydmVyQGV4YW1wbGUuY29tMFkwEwYHKoZIzj0CAQYIKoZIzj0DAQcD
QgAEuzOsTCdQSsZKpQTDPN6fNttyLc6U6iv6yyAJOSwW6GEC6a9N0wKTmjFbl5Ih
f/DPGNqREQI0huggWDMLgDSJ2KOCAQEwgf4wHQYDVR0OBBYEFF1dJu+sfjb5m3YV
K0olAiPvsokwMIHCBgNVHSMEgbowgbeAFFaOmsPwQt4YuUVVbvmTz+rD86UhoYGb
pIGYMIGVMQswCQYDVQQGEwJVUzETMBEGA1UECAwKV2FzaGluZ3RvbjEQMA4GA1UE
BwwHU2VhdHRsZTEQMA4GA1UECgwHd29sZlNTTDEUMBIGA1UECwwLRGV2ZWxvcG1l
bnQxGDAWBgNVBAMMD3d3dy53b2xmc3NsLmNvbTEdMBsGCSqGSIb3DQEJARYOY2FA
ZXhhbXBsZS5jb22CAQYwGAYDVR0RBBEwD4IHZXhhbXBsZYcEfwAAATAKBggqhkjO
PQQDAgNIADBFAiBC2KCV56pOY/1Qbmv5mJC+PURTaBtm3SKjEndwlFbbggIhAM4Y
shCyLSq5edR2ZN8okSONkyLpS+p/SU7rZc7Ihrr7
-----END CERTIFICATE-----
